target datalayout = "e-m:e-p270:32:32-p271:32:32-p272:64:64-i64:64-i128:128-f80:128-n8:16:32:64-S128"
target triple = "x86_64-pc-linux-gnu"

@.str.14 = private unnamed_addr constant [9 x i8] c"no value\00", align 1
@.str.15 = private unnamed_addr constant [4 x i8] c"nil\00", align 1
@.str.16 = private unnamed_addr constant [5 x i8] c"true\00", align 1
@.str.17 = private unnamed_addr constant [6 x i8] c"false\00", align 1
@.str.18 = private unnamed_addr constant [11 x i8] c"__tostring\00", align 1
@.str.19 = private unnamed_addr constant [34 x i8] c"'__tostring' must return a string\00", align 1
@.str.20 = private unnamed_addr constant [14 x i8] c"%s: 0x%016llx\00", align 1

; Function Attrs: mustprogress uwtable
define dso_local noundef ptr @_Z13luaL_typenameP9lua_Statei(ptr noundef %0, i32 noundef %1) #3 {
  %3 = alloca ptr, align 8
  %4 = alloca i32, align 4
  %5 = alloca ptr, align 8
  store ptr %0, ptr %3, align 8
  store i32 %1, ptr %4, align 4
  %6 = load ptr, ptr %3, align 8
  %7 = load i32, ptr %4, align 4
  %8 = call noundef ptr @_Z13luaA_toobjectP9lua_Statei(ptr noundef %6, i32 noundef %7)
  store ptr %8, ptr %5, align 8
  %9 = load ptr, ptr %5, align 8
  %10 = icmp ne ptr %9, null
  br i1 %10, label %11, label %15

11:                                               ; preds = %2
  %12 = load ptr, ptr %3, align 8
  %13 = load ptr, ptr %5, align 8
  %14 = call noundef ptr @_Z16luaT_objtypenameP9lua_StatePK10lua_TValue(ptr noundef %12, ptr noundef %13)
  br label %16

15:                                               ; preds = %2
  br label %16

16:                                               ; preds = %15, %11
  %17 = phi ptr [ %14, %11 ], [ @.str.14, %15 ]
  ret ptr %17
}

; Function Attrs: mustprogress uwtable
define dso_local noundef ptr @_Z14luaL_tolstringP9lua_StateiPm(ptr noundef %0, i32 noundef %1, ptr noundef %2) #3 {
  %4 = alloca ptr, align 8
  %5 = alloca ptr, align 8
  %6 = alloca i32, align 4
  %7 = alloca ptr, align 8
  %8 = alloca ptr, align 8
  %9 = alloca double, align 8
  %10 = alloca [48 x i8], align 16
  %11 = alloca ptr, align 8
  %12 = alloca ptr, align 8
  %13 = alloca [144 x i8], align 16
  %14 = alloca ptr, align 8
  %15 = alloca i32, align 4
  %16 = alloca ptr, align 8
  %17 = alloca i64, align 8
  store ptr %0, ptr %5, align 8
  store i32 %1, ptr %6, align 4
  store ptr %2, ptr %7, align 8
  %18 = load ptr, ptr %5, align 8
  %19 = load i32, ptr %6, align 4
  %20 = call noundef i32 @_Z13luaL_callmetaP9lua_StateiPKc(ptr noundef %18, i32 noundef %19, ptr noundef @.str.18)
  %21 = icmp ne i32 %20, 0
  br i1 %21, label %22, label %32

22:                                               ; preds = %3
  %23 = load ptr, ptr %5, align 8
  %24 = load ptr, ptr %7, align 8
  %25 = call noundef ptr @_Z13lua_tolstringP9lua_StateiPm(ptr noundef %23, i32 noundef -1, ptr noundef %24)
  store ptr %25, ptr %8, align 8
  %26 = load ptr, ptr %8, align 8
  %27 = icmp ne ptr %26, null
  br i1 %27, label %30, label %28

28:                                               ; preds = %22
  %29 = load ptr, ptr %5, align 8
  call void (ptr, ptr, ...) @_Z11luaL_errorLP9lua_StatePKcz(ptr noundef %29, ptr noundef @.str.19) #8
  unreachable

30:                                               ; preds = %22
  %31 = load ptr, ptr %8, align 8
  store ptr %31, ptr %4, align 8
  br label %116

32:                                               ; preds = %3
  %33 = load ptr, ptr %5, align 8
  %34 = load i32, ptr %6, align 4
  %35 = call noundef i32 @_Z8lua_typeP9lua_Statei(ptr noundef %33, i32 noundef %34)
  switch i32 %35, label %98 [
    i32 0, label %36
    i32 1, label %38
    i32 3, label %45
    i32 4, label %59
    i32 5, label %95
  ]

36:                                               ; preds = %32
  %37 = load ptr, ptr %5, align 8
  call void @_Z15lua_pushlstringP9lua_StatePKcm(ptr noundef %37, ptr noundef @.str.15, i64 noundef 3)
  br label %112

38:                                               ; preds = %32
  %39 = load ptr, ptr %5, align 8
  %40 = load ptr, ptr %5, align 8
  %41 = load i32, ptr %6, align 4
  %42 = call noundef i32 @_Z13lua_tobooleanP9lua_Statei(ptr noundef %40, i32 noundef %41)
  %43 = icmp ne i32 %42, 0
  %44 = select i1 %43, ptr @.str.16, ptr @.str.17
  call void @_Z14lua_pushstringP9lua_StatePKc(ptr noundef %39, ptr noundef %44)
  br label %112

45:                                               ; preds = %32
  %46 = load ptr, ptr %5, align 8
  %47 = load i32, ptr %6, align 4
  %48 = call noundef double @_Z13lua_tonumberxP9lua_StateiPi(ptr noundef %46, i32 noundef %47, ptr noundef null)
  store double %48, ptr %9, align 8
  %49 = getelementptr inbounds [48 x i8], ptr %10, i64 0, i64 0
  %50 = load double, ptr %9, align 8
  %51 = call noundef ptr @_Z12luai_num2strPcd(ptr noundef %49, double noundef %50)
  store ptr %51, ptr %11, align 8
  %52 = load ptr, ptr %5, align 8
  %53 = getelementptr inbounds [48 x i8], ptr %10, i64 0, i64 0
  %54 = load ptr, ptr %11, align 8
  %55 = getelementptr inbounds [48 x i8], ptr %10, i64 0, i64 0
  %56 = ptrtoint ptr %54 to i64
  %57 = ptrtoint ptr %55 to i64
  %58 = sub i64 %56, %57
  call void @_Z15lua_pushlstringP9lua_StatePKcm(ptr noundef %52, ptr noundef %53, i64 noundef %58)
  br label %112

59:                                               ; preds = %32
  %60 = load ptr, ptr %5, align 8
  %61 = load i32, ptr %6, align 4
  %62 = call noundef ptr @_Z12lua_tovectorP9lua_Statei(ptr noundef %60, i32 noundef %61)
  store ptr %62, ptr %12, align 8
  %63 = getelementptr inbounds [144 x i8], ptr %13, i64 0, i64 0
  store ptr %63, ptr %14, align 8
  store i32 0, ptr %15, align 4
  br label %64

64:                                               ; preds = %84, %59
  %65 = load i32, ptr %15, align 4
  %66 = icmp slt i32 %65, 3
  br i1 %66, label %67, label %87

67:                                               ; preds = %64
  %68 = load i32, ptr %15, align 4
  %69 = icmp ne i32 %68, 0
  br i1 %69, label %70, label %75

70:                                               ; preds = %67
  %71 = load ptr, ptr %14, align 8
  %72 = getelementptr inbounds i8, ptr %71, i32 1
  store ptr %72, ptr %14, align 8
  store i8 44, ptr %71, align 1
  %73 = load ptr, ptr %14, align 8
  %74 = getelementptr inbounds i8, ptr %73, i32 1
  store ptr %74, ptr %14, align 8
  store i8 32, ptr %73, align 1
  br label %75

75:                                               ; preds = %70, %67
  %76 = load ptr, ptr %14, align 8
  %77 = load ptr, ptr %12, align 8
  %78 = load i32, ptr %15, align 4
  %79 = sext i32 %78 to i64
  %80 = getelementptr inbounds float, ptr %77, i64 %79
  %81 = load float, ptr %80, align 4
  %82 = fpext float %81 to double
  %83 = call noundef ptr @_Z12luai_num2strPcd(ptr noundef %76, double noundef %82)
  store ptr %83, ptr %14, align 8
  br label %84

84:                                               ; preds = %75
  %85 = load i32, ptr %15, align 4
  %86 = add nsw i32 %85, 1
  store i32 %86, ptr %15, align 4
  br label %64, !llvm.loop !10

87:                                               ; preds = %64
  %88 = load ptr, ptr %5, align 8
  %89 = getelementptr inbounds [144 x i8], ptr %13, i64 0, i64 0
  %90 = load ptr, ptr %14, align 8
  %91 = getelementptr inbounds [144 x i8], ptr %13, i64 0, i64 0
  %92 = ptrtoint ptr %90 to i64
  %93 = ptrtoint ptr %91 to i64
  %94 = sub i64 %92, %93
  call void @_Z15lua_pushlstringP9lua_StatePKcm(ptr noundef %88, ptr noundef %89, i64 noundef %94)
  br label %112

95:                                               ; preds = %32
  %96 = load ptr, ptr %5, align 8
  %97 = load i32, ptr %6, align 4
  call void @_Z13lua_pushvalueP9lua_Statei(ptr noundef %96, i32 noundef %97)
  br label %112

98:                                               ; preds = %32
  %99 = load ptr, ptr %5, align 8
  %100 = load i32, ptr %6, align 4
  %101 = call noundef ptr @_Z13lua_topointerP9lua_Statei(ptr noundef %99, i32 noundef %100)
  store ptr %101, ptr %16, align 8
  %102 = load ptr, ptr %5, align 8
  %103 = load ptr, ptr %16, align 8
  %104 = ptrtoint ptr %103 to i64
  %105 = call noundef i64 @_Z17lua_encodepointerP9lua_Statem(ptr noundef %102, i64 noundef %104)
  store i64 %105, ptr %17, align 8
  %106 = load ptr, ptr %5, align 8
  %107 = load ptr, ptr %5, align 8
  %108 = load i32, ptr %6, align 4
  %109 = call noundef ptr @_Z13luaL_typenameP9lua_Statei(ptr noundef %107, i32 noundef %108)
  %110 = load i64, ptr %17, align 8
  %111 = call noundef ptr (ptr, ptr, ...) @_Z16lua_pushfstringLP9lua_StatePKcz(ptr noundef %106, ptr noundef @.str.20, ptr noundef %109, i64 noundef %110)
  br label %112

112:                                              ; preds = %98, %95, %87, %45, %38, %36
  %113 = load ptr, ptr %5, align 8
  %114 = load ptr, ptr %7, align 8
  %115 = call noundef ptr @_Z13lua_tolstringP9lua_StateiPm(ptr noundef %113, i32 noundef -1, ptr noundef %114)
  store ptr %115, ptr %4, align 8
  br label %116

116:                                              ; preds = %112, %30
  %117 = load ptr, ptr %4, align 8
  ret ptr %117
}