; Function Attrs: mustprogress uwtable
define dso_local noundef ptr @_Z14luaL_tolstringP9lua_StateiPm(ptr noundef %0, i32 noundef %1, ptr noundef %2) local_unnamed_addr #2 {
  %4 = alloca [48 x i8], align 16
  %5 = alloca [144 x i8], align 16
  %6 = tail call noundef i32 @_Z13luaL_callmetaP9lua_StateiPKc(ptr noundef %0, i32 noundef %1, ptr noundef nonnull @.str.18)
  %.not = icmp eq i32 %6, 0
  br i1 %.not, label %10, label %7

7:                                                ; preds = %3
  %8 = tail call noundef ptr @_Z13lua_tolstringP9lua_StateiPm(ptr noundef %0, i32 noundef -1, ptr noundef %2)
  %.not47 = icmp eq ptr %8, null
  br i1 %.not47, label %9, label %49

9:                                                ; preds = %7
  tail call void (ptr, ptr, ...) @_Z11luaL_errorLP9lua_StatePKcz(ptr noundef %0, ptr noundef nonnull @.str.19) #11
  unreachable

10:                                               ; preds = %3
  %11 = tail call noundef i32 @_Z8lua_typeP9lua_Statei(ptr noundef %0, i32 noundef %1)
  switch i32 %11, label %38 [
    i32 0, label %12
    i32 1, label %13
    i32 3, label %16
    i32 4, label %22
    i32 5, label %37
  ]

12:                                               ; preds = %10
  tail call void @_Z15lua_pushlstringP9lua_StatePKcm(ptr noundef %0, ptr noundef nonnull @.str.15, i64 noundef 3)
  br label %47

13:                                               ; preds = %10
  %14 = tail call noundef i32 @_Z13lua_tobooleanP9lua_Statei(ptr noundef %0, i32 noundef %1)
  %.not46 = icmp eq i32 %14, 0
  %15 = select i1 %.not46, ptr @.str.17, ptr @.str.16
  tail call void @_Z14lua_pushstringP9lua_StatePKc(ptr noundef %0, ptr noundef nonnull %15)
  br label %47

16:                                               ; preds = %10
  %17 = tail call noundef double @_Z13lua_tonumberxP9lua_StateiPi(ptr noundef %0, i32 noundef %1, ptr noundef null)
  %18 = call noundef ptr @_Z12luai_num2strPcd(ptr noundef nonnull %4, double noundef %17)
  %19 = ptrtoint ptr %18 to i64
  %20 = ptrtoint ptr %4 to i64
  %21 = sub i64 %19, %20
  call void @_Z15lua_pushlstringP9lua_StatePKcm(ptr noundef %0, ptr noundef nonnull %4, i64 noundef %21)
  br label %47

22:                                               ; preds = %10
  %23 = tail call noundef ptr @_Z12lua_tovectorP9lua_Statei(ptr noundef %0, i32 noundef %1)
  br label %24

24:                                               ; preds = %22, %28
  %indvars.iv = phi i64 [ 0, %22 ], [ %indvars.iv.next, %28 ]
  %.04249 = phi ptr [ %5, %22 ], [ %32, %28 ]
  %.not45 = icmp eq i64 %indvars.iv, 0
  br i1 %.not45, label %28, label %25

25:                                               ; preds = %24
  %26 = getelementptr inbounds i8, ptr %.04249, i64 1
  store i8 44, ptr %.04249, align 1
  %27 = getelementptr inbounds i8, ptr %.04249, i64 2
  store i8 32, ptr %26, align 1
  br label %28

28:                                               ; preds = %25, %24
  %.1 = phi ptr [ %27, %25 ], [ %.04249, %24 ]
  %29 = getelementptr inbounds float, ptr %23, i64 %indvars.iv
  %30 = load float, ptr %29, align 4
  %31 = fpext float %30 to double
  %32 = call noundef ptr @_Z12luai_num2strPcd(ptr noundef %.1, double noundef %31)
  %indvars.iv.next = add nuw nsw i64 %indvars.iv, 1
  %exitcond.not = icmp eq i64 %indvars.iv.next, 3
  br i1 %exitcond.not, label %33, label %24, !llvm.loop !10

33:                                               ; preds = %28
  %34 = ptrtoint ptr %32 to i64
  %35 = ptrtoint ptr %5 to i64
  %36 = sub i64 %34, %35
  call void @_Z15lua_pushlstringP9lua_StatePKcm(ptr noundef %0, ptr noundef nonnull %5, i64 noundef %36)
  br label %47

37:                                               ; preds = %10
  tail call void @_Z13lua_pushvalueP9lua_Statei(ptr noundef %0, i32 noundef %1)
  br label %47

38:                                               ; preds = %10
  %39 = tail call noundef ptr @_Z13lua_topointerP9lua_Statei(ptr noundef %0, i32 noundef %1)
  %40 = ptrtoint ptr %39 to i64
  %41 = tail call noundef i64 @_Z17lua_encodepointerP9lua_Statem(ptr noundef %0, i64 noundef %40)
  %42 = tail call noundef ptr @_Z13luaA_toobjectP9lua_Statei(ptr noundef %0, i32 noundef %1)
  %.not.i = icmp eq ptr %42, null
  br i1 %.not.i, label %_Z13luaL_typenameP9lua_Statei.exit, label %43

43:                                               ; preds = %38
  %44 = tail call noundef ptr @_Z16luaT_objtypenameP9lua_StatePK10lua_TValue(ptr noundef %0, ptr noundef nonnull %42)
  br label %_Z13luaL_typenameP9lua_Statei.exit

_Z13luaL_typenameP9lua_Statei.exit:               ; preds = %38, %43
  %45 = phi ptr [ %44, %43 ], [ @.str.14, %38 ]
  %46 = tail call noundef ptr (ptr, ptr, ...) @_Z16lua_pushfstringLP9lua_StatePKcz(ptr noundef %0, ptr noundef nonnull @.str.20, ptr noundef %45, i64 noundef %41)
  br label %47

47:                                               ; preds = %_Z13luaL_typenameP9lua_Statei.exit, %37, %33, %16, %13, %12
  %48 = call noundef ptr @_Z13lua_tolstringP9lua_StateiPm(ptr noundef %0, i32 noundef -1, ptr noundef %2)
  br label %49

49:                                               ; preds = %7, %47
  %.0 = phi ptr [ %48, %47 ], [ %8, %7 ]
  ret ptr %.0
}